target datalayout = "e-m:e-p270:32:32-p271:32:32-p272:64:64-i64:64-i128:128-f80:128-n8:16:32:64-S128"
target triple = "x86_64-pc-linux-gnu"

%"class.boost::core::basic_string_view" = type { ptr, i64 }

; Function Attrs: mustprogress nounwind uwtable
define linkonce_odr hidden noundef signext i8 @_ZN5boost4urls7grammar6detail8to_lowerEc(i8 noundef signext %0) #0 comdat {
  %2 = alloca i8, align 1
  store i8 %0, ptr %2, align 1, !tbaa !9
  %3 = load i8, ptr %2, align 1, !tbaa !9
  %4 = sext i8 %3 to i32
  %5 = icmp sge i32 %4, 65
  br i1 %5, label %6, label %15

6:                                                ; preds = %1
  %7 = load i8, ptr %2, align 1, !tbaa !9
  %8 = sext i8 %7 to i32
  %9 = icmp sle i32 %8, 90
  br i1 %9, label %10, label %15

10:                                               ; preds = %6
  %11 = load i8, ptr %2, align 1, !tbaa !9
  %12 = sext i8 %11 to i32
  %13 = add nsw i32 %12, 97
  %14 = sub nsw i32 %13, 65
  br label %18

15:                                               ; preds = %6, %1
  %16 = load i8, ptr %2, align 1, !tbaa !9
  %17 = sext i8 %16 to i32
  br label %18

18:                                               ; preds = %15, %10
  %19 = phi i32 [ %14, %10 ], [ %17, %15 ]
  %20 = trunc i32 %19 to i8
  ret i8 %20
}

; Function Attrs: mustprogress nounwind uwtable
define linkonce_odr hidden noundef signext i8 @_ZN5boost4urls7grammar8to_lowerEc(i8 noundef signext %0) #0 comdat {
  %2 = alloca i8, align 1
  store i8 %0, ptr %2, align 1, !tbaa !9
  %3 = load i8, ptr %2, align 1, !tbaa !9
  %4 = call noundef signext i8 @_ZN5boost4urls7grammar6detail8to_lowerEc(i8 noundef signext %3) #2
  ret i8 %4
}

; Function Attrs: mustprogress nounwind uwtable
define linkonce_odr hidden noundef i64 @_ZNK5boost4core17basic_string_viewIcE4sizeEv(ptr noundef nonnull align 8 dereferenceable(16) %0) #0 comdat align 2 {
  %2 = alloca ptr, align 8
  store ptr %0, ptr %2, align 8, !tbaa !7
  %3 = load ptr, ptr %2, align 8
  %4 = getelementptr inbounds nuw %"class.boost::core::basic_string_view", ptr %3, i32 0, i32 1
  %5 = load i64, ptr %4, align 8, !tbaa !13
  ret i64 %5
}

; Function Attrs: mustprogress nounwind uwtable
define linkonce_odr hidden noundef ptr @_ZNK5boost4core17basic_string_viewIcE4dataEv(ptr noundef nonnull align 8 dereferenceable(16) %0) #0 comdat align 2 {
  %2 = alloca ptr, align 8
  store ptr %0, ptr %2, align 8, !tbaa !7
  %3 = load ptr, ptr %2, align 8
  %4 = getelementptr inbounds nuw %"class.boost::core::basic_string_view", ptr %3, i32 0, i32 0
  %5 = load ptr, ptr %4, align 8, !tbaa !15
  ret ptr %5
}

; Function Attrs: mustprogress nounwind uwtable
define noundef i64 @_ZN5boost4urls7grammar9ci_digestENS_4core17basic_string_viewIcEE(ptr %0, i64 %1) #0 {
  %3 = alloca %"class.boost::core::basic_string_view", align 8
  %4 = alloca i64, align 8
  %5 = alloca i64, align 8
  %6 = alloca i64, align 8
  %7 = alloca ptr, align 8
  %8 = alloca i64, align 8
  %9 = getelementptr inbounds nuw { ptr, i64 }, ptr %3, i32 0, i32 0
  store ptr %0, ptr %9, align 8
  %10 = getelementptr inbounds nuw { ptr, i64 }, ptr %3, i32 0, i32 1
  store i64 %1, ptr %10, align 8
  call void @llvm.lifetime.start.p0(i64 8, ptr %4) #2
  store i64 1099511628211, ptr %4, align 8, !tbaa !3
  call void @llvm.lifetime.start.p0(i64 8, ptr %5) #2
  store i64 -3750763034362895579, ptr %5, align 8, !tbaa !3
  call void @llvm.lifetime.start.p0(i64 8, ptr %6) #2
  store i64 -3750763034362895579, ptr %6, align 8, !tbaa !3
  call void @llvm.lifetime.start.p0(i64 8, ptr %7) #2
  %11 = call noundef ptr @_ZNK5boost4core17basic_string_viewIcE4dataEv(ptr noundef nonnull align 8 dereferenceable(16) %3) #2
  store ptr %11, ptr %7, align 8, !tbaa !7
  call void @llvm.lifetime.start.p0(i64 8, ptr %8) #2
  %12 = call noundef i64 @_ZNK5boost4core17basic_string_viewIcE4sizeEv(ptr noundef nonnull align 8 dereferenceable(16) %3) #2
  store i64 %12, ptr %8, align 8, !tbaa !3
  br label %13

13:                                               ; preds = %25, %2
  %14 = load i64, ptr %8, align 8, !tbaa !3
  %15 = add i64 %14, -1
  store i64 %15, ptr %8, align 8, !tbaa !3
  %16 = icmp ne i64 %14, 0
  br i1 %16, label %17, label %28

17:                                               ; preds = %13
  %18 = load ptr, ptr %7, align 8, !tbaa !7
  %19 = load i8, ptr %18, align 1, !tbaa !9
  %20 = call noundef signext i8 @_ZN5boost4urls7grammar8to_lowerEc(i8 noundef signext %19) #2
  %21 = sext i8 %20 to i64
  %22 = load i64, ptr %6, align 8, !tbaa !3
  %23 = xor i64 %21, %22
  %24 = mul i64 %23, 1099511628211
  store i64 %24, ptr %6, align 8, !tbaa !3
  br label %25

25:                                               ; preds = %17
  %26 = load ptr, ptr %7, align 8, !tbaa !7
  %27 = getelementptr inbounds nuw i8, ptr %26, i32 1
  store ptr %27, ptr %7, align 8, !tbaa !7
  br label %13, !llvm.loop !20

28:                                               ; preds = %13
  %29 = load i64, ptr %6, align 8, !tbaa !3
  call void @llvm.lifetime.end.p0(i64 8, ptr %8) #2
  call void @llvm.lifetime.end.p0(i64 8, ptr %7) #2
  call void @llvm.lifetime.end.p0(i64 8, ptr %6) #2
  call void @llvm.lifetime.end.p0(i64 8, ptr %5) #2
  call void @llvm.lifetime.end.p0(i64 8, ptr %4) #2
  ret i64 %29
}