; Function Attrs: mustprogress nofree norecurse nosync nounwind willreturn memory(argmem: read) uwtable
define noundef i64 @_ZN5boost4urls7grammar9ci_digestENS_4core17basic_string_viewIcEE(ptr nocapture readonly %0, i64 %1) local_unnamed_addr #0 {
  %.not6 = icmp eq i64 %1, 0
  br i1 %.not6, label %._crit_edge, label %.lr.ph

.lr.ph:                                           ; preds = %2, %.lr.ph
  %.09 = phi i64 [ %3, %.lr.ph ], [ %1, %2 ]
  %.048 = phi ptr [ %11, %.lr.ph ], [ %0, %2 ]
  %.057 = phi i64 [ %10, %.lr.ph ], [ -3750763034362895579, %2 ]
  %3 = add i64 %.09, -1
  %4 = load i8, ptr %.048, align 1, !tbaa !3
  %5 = add i8 %4, -65
  %or.cond.i.i = icmp ult i8 %5, 26
  %6 = add nuw nsw i8 %4, 32
  %7 = select i1 %or.cond.i.i, i8 %6, i8 %4
  %8 = sext i8 %7 to i64
  %9 = xor i64 %.057, %8
  %10 = mul i64 %9, 1099511628211
  %11 = getelementptr inbounds nuw i8, ptr %.048, i64 1
  %.not = icmp eq i64 %3, 0
  br i1 %.not, label %._crit_edge, label %.lr.ph, !llvm.loop !10

._crit_edge:                                      ; preds = %.lr.ph, %2
  %.05.lcssa = phi i64 [ -3750763034362895579, %2 ], [ %10, %.lr.ph ]
  ret i64 %.05.lcssa
}